; Function Attrs: nounwind uwtable
define noalias noundef nonnull ptr @l_Lake_EResult_toExcept___rarg(ptr noundef %0) local_unnamed_addr #0 {
  %2 = ptrtoint ptr %0 to i64
  %3 = and i64 %2, 1
  %.not.i = icmp eq i64 %3, 0
  br i1 %.not.i, label %7, label %4

4:                                                ; preds = %1
  %5 = lshr i64 %2, 1
  %6 = trunc i64 %5 to i32
  br label %lean_obj_tag.exit

7:                                                ; preds = %1
  %8 = getelementptr i8, ptr %0, i64 4
  %.val.i = load i32, ptr %8, align 4
  %9 = lshr i32 %.val.i, 24
  br label %lean_obj_tag.exit

lean_obj_tag.exit:                                ; preds = %4, %7
  %.0.i = phi i32 [ %6, %4 ], [ %9, %7 ]
  %10 = icmp eq i32 %.0.i, 0
  %11 = getelementptr inbounds nuw i8, ptr %0, i64 8
  %12 = load ptr, ptr %11, align 8, !tbaa !9
  %13 = ptrtoint ptr %12 to i64
  %14 = and i64 %13, 1
  %.not19 = icmp eq i64 %14, 0
  br i1 %10, label %15, label %25

15:                                               ; preds = %lean_obj_tag.exit
  br i1 %.not19, label %16, label %lean_inc.exit12

16:                                               ; preds = %15
  %.val.i13 = load i32, ptr %12, align 4, !tbaa !4
  %17 = icmp sgt i32 %.val.i13, 0
  br i1 %17, label %18, label %20, !prof !13

18:                                               ; preds = %16
  %19 = add nuw i32 %.val.i13, 1
  store i32 %19, ptr %12, align 4, !tbaa !4
  br label %lean_inc.exit12

20:                                               ; preds = %16
  %.not.i14 = icmp eq i32 %.val.i13, 0
  br i1 %.not.i14, label %lean_inc.exit12, label %21

21:                                               ; preds = %20
  tail call void @lean_inc_ref_cold(ptr noundef nonnull %12) #4
  br label %lean_inc.exit12

lean_inc.exit12:                                  ; preds = %21, %20, %18, %15
  tail call void @lean_inc_heartbeat() #4
  %22 = tail call noalias ptr @mi_malloc_small(i64 noundef 16) #4
  %23 = icmp eq ptr %22, null
  br i1 %23, label %24, label %lean_alloc_ctor.exit

24:                                               ; preds = %lean_inc.exit12
  tail call void @lean_internal_panic_out_of_memory() #5
  unreachable

25:                                               ; preds = %lean_obj_tag.exit
  br i1 %.not19, label %26, label %lean_inc.exit

26:                                               ; preds = %25
  %.val.i15 = load i32, ptr %12, align 4, !tbaa !4
  %27 = icmp sgt i32 %.val.i15, 0
  br i1 %27, label %28, label %30, !prof !13

28:                                               ; preds = %26
  %29 = add nuw i32 %.val.i15, 1
  store i32 %29, ptr %12, align 4, !tbaa !4
  br label %lean_inc.exit

30:                                               ; preds = %26
  %.not.i16 = icmp eq i32 %.val.i15, 0
  br i1 %.not.i16, label %lean_inc.exit, label %31

31:                                               ; preds = %30
  tail call void @lean_inc_ref_cold(ptr noundef nonnull %12) #4
  br label %lean_inc.exit

lean_inc.exit:                                    ; preds = %31, %30, %28, %25
  tail call void @lean_inc_heartbeat() #4
  %32 = tail call noalias ptr @mi_malloc_small(i64 noundef 16) #4
  %33 = icmp eq ptr %32, null
  br i1 %33, label %34, label %lean_alloc_ctor.exit

34:                                               ; preds = %lean_inc.exit
  tail call void @lean_internal_panic_out_of_memory() #5
  unreachable

lean_alloc_ctor.exit:                             ; preds = %lean_inc.exit, %lean_inc.exit12
  %.sink23 = phi ptr [ %22, %lean_inc.exit12 ], [ %32, %lean_inc.exit ]
  %.sink = phi i32 [ 16842768, %lean_inc.exit12 ], [ 65552, %lean_inc.exit ]
  %35 = getelementptr inbounds nuw i8, ptr %.sink23, i64 4
  store i32 1, ptr %.sink23, align 4, !tbaa !4
  store i32 %.sink, ptr %35, align 4
  %36 = getelementptr inbounds nuw i8, ptr %.sink23, i64 8
  store ptr %12, ptr %36, align 8, !tbaa !9
  ret ptr %.sink23
}